target datalayout = "e-m:e-p270:32:32-p271:32:32-p272:64:64-i64:64-i128:128-f80:128-n8:16:32:64-S128"
target triple = "x86_64-pc-linux-gnu"

%union.SourceSpan = type { i64 }
%struct.Int = type { %struct.Int128_, i32 }
%struct.Int128_ = type { i64, i64 }
%struct.Expr_ = type { ptr, %union.SourceSpan, i16, %union.anon.61 }
%union.anon.61 = type { %struct.ExprAnySwitch }
%struct.ExprAnySwitch = type { i8, %union.anon.63 }
%union.anon.63 = type { %struct.anon.64 }
%struct.anon.64 = type { ptr, %union.SourceSpan, ptr }
%struct.ExprConst = type { i16, %union.anon.70 }
%union.anon.70 = type { %struct.Int }
%struct.ExprIdentifier = type { %union.anon.76 }
%union.anon.76 = type { %struct.anon.77 }
%struct.anon.77 = type { ptr, ptr, i8 }
%struct.Decl_ = type { ptr, ptr, %union.SourceSpan, i64, %union.anon, i32, %union.anon.0, i64, ptr, ptr, ptr, %union.anon.1 }
%union.anon = type { ptr }
%union.anon.0 = type { i16 }
%union.anon.1 = type { %struct.FuncDecl }
%struct.FuncDecl = type { i32, [4 x i8], %struct.Signature_, i32, i32, %union.anon.8 }
%struct.Signature_ = type <{ %struct.CalleeAttributes, i16, i8, i32, i32, [4 x i8], ptr }>
%struct.CalleeAttributes = type { i8 }
%union.anon.8 = type { %struct.anon.9 }
%struct.anon.9 = type { i16, %union.anon.10 }
%union.anon.10 = type { ptr }
%struct.anon.78 = type { ptr, i8 }
%struct.ExprUnary = type { ptr, i8 }

@.str.91 = private unnamed_addr constant [42 x i8] c"You may not pass null to a '&' parameter.\00", align 1
@.str.92 = private unnamed_addr constant [83 x i8] c"A const parameter may not be passed into a function or macro as an 'out' argument.\00", align 1
@.str.93 = private unnamed_addr constant [83 x i8] c"An 'out' parameter may not be passed into a function or macro as an 'in' argument.\00", align 1
@.str.94 = private unnamed_addr constant [83 x i8] c"An 'in' parameter may not be passed into a function or macro as an 'out' argument.\00", align 1

; Function Attrs: nounwind uwtable
define internal zeroext i1 @sema_call_check_contract_param_match(ptr noundef %0, ptr noundef %1, ptr noundef %2) #0 {
  %4 = alloca ptr, align 8
  %5 = alloca i1, align 1
  %6 = alloca ptr, align 8
  %7 = alloca ptr, align 8
  %8 = alloca ptr, align 8
  %9 = alloca ptr, align 8
  store ptr %0, ptr %6, align 8
  store ptr %1, ptr %7, align 8
  store ptr %2, ptr %8, align 8
  %10 = load ptr, ptr %7, align 8
  %11 = getelementptr inbounds %struct.Decl_, ptr %10, i32 0, i32 11
  %12 = load i32, ptr %11, align 8
  %13 = lshr i32 %12, 13
  %14 = and i32 %13, 1
  %15 = trunc i32 %14 to i1
  br i1 %15, label %16, label %44

16:                                               ; preds = %3
  %17 = load ptr, ptr %8, align 8
  store ptr %17, ptr %4, align 8
  %18 = load ptr, ptr %4, align 8
  %19 = getelementptr inbounds %struct.Expr_, ptr %18, i32 0, i32 2
  %20 = load i16, ptr %19, align 8
  %21 = and i16 %20, 255
  %22 = zext i16 %21 to i32
  %23 = icmp eq i32 %22, 14
  br i1 %23, label %24, label %31

24:                                               ; preds = %16
  %25 = load ptr, ptr %4, align 8
  %26 = getelementptr inbounds %struct.Expr_, ptr %25, i32 0, i32 3
  %27 = load i16, ptr %26, align 8
  %28 = and i16 %27, 255
  %29 = zext i16 %28 to i32
  %30 = icmp eq i32 %29, 7
  br label %31

31:                                               ; preds = %24, %16
  %32 = phi i1 [ false, %16 ], [ %30, %24 ]
  br i1 %32, label %33, label %44

33:                                               ; preds = %31
  %34 = load ptr, ptr %8, align 8
  %35 = getelementptr inbounds %struct.Expr_, ptr %34, i32 0, i32 3
  %36 = getelementptr inbounds %struct.ExprConst, ptr %35, i32 0, i32 1
  %37 = load i64, ptr %36, align 8
  %38 = icmp ne i64 %37, 0
  br i1 %38, label %44, label %39

39:                                               ; preds = %33
  %40 = load ptr, ptr %8, align 8
  %41 = getelementptr inbounds %struct.Expr_, ptr %40, i32 0, i32 1
  %42 = getelementptr inbounds %union.SourceSpan, ptr %41, i32 0, i32 0
  %43 = load i64, ptr %42, align 8
  call void (i64, ptr, ...) @sema_error_at(i64 %43, ptr noundef @.str.91)
  store i1 false, ptr %5, align 1
  br label %147

44:                                               ; preds = %33, %31, %3
  %45 = load ptr, ptr %8, align 8
  %46 = getelementptr inbounds %struct.Expr_, ptr %45, i32 0, i32 2
  %47 = load i16, ptr %46, align 8
  %48 = and i16 %47, 255
  %49 = zext i16 %48 to i32
  %50 = icmp eq i32 %49, 63
  br i1 %50, label %51, label %87

51:                                               ; preds = %44
  %52 = load ptr, ptr %8, align 8
  %53 = getelementptr inbounds %struct.Expr_, ptr %52, i32 0, i32 3
  %54 = getelementptr inbounds %struct.ExprUnary, ptr %53, i32 0, i32 0
  %55 = load ptr, ptr %54, align 8
  %56 = getelementptr inbounds %struct.Expr_, ptr %55, i32 0, i32 2
  %57 = load i16, ptr %56, align 8
  %58 = and i16 %57, 255
  %59 = zext i16 %58 to i32
  %60 = icmp eq i32 %59, 34
  br i1 %60, label %61, label %87

61:                                               ; preds = %51
  %62 = load ptr, ptr %8, align 8
  %63 = getelementptr inbounds %struct.Expr_, ptr %62, i32 0, i32 3
  %64 = getelementptr inbounds %struct.ExprUnary, ptr %63, i32 0, i32 0
  %65 = load ptr, ptr %64, align 8
  %66 = getelementptr inbounds %struct.Expr_, ptr %65, i32 0, i32 3
  %67 = getelementptr inbounds %struct.ExprIdentifier, ptr %66, i32 0, i32 0
  %68 = getelementptr inbounds %struct.anon.78, ptr %67, i32 0, i32 0
  %69 = load ptr, ptr %68, align 8
  %70 = getelementptr inbounds %struct.Decl_, ptr %69, i32 0, i32 11
  %71 = load i32, ptr %70, align 8
  %72 = and i32 %71, 255
  %73 = icmp eq i32 %72, 0
  br i1 %73, label %74, label %86

74:                                               ; preds = %61
  %75 = load ptr, ptr %7, align 8
  %76 = getelementptr inbounds %struct.Decl_, ptr %75, i32 0, i32 11
  %77 = load i32, ptr %76, align 8
  %78 = lshr i32 %77, 14
  %79 = and i32 %78, 1
  %80 = trunc i32 %79 to i1
  br i1 %80, label %81, label %86

81:                                               ; preds = %74
  %82 = load ptr, ptr %8, align 8
  %83 = getelementptr inbounds %struct.Expr_, ptr %82, i32 0, i32 1
  %84 = getelementptr inbounds %union.SourceSpan, ptr %83, i32 0, i32 0
  %85 = load i64, ptr %84, align 8
  call void (i64, ptr, ...) @sema_error_at(i64 %85, ptr noundef @.str.92)
  store i1 false, ptr %5, align 1
  br label %147

86:                                               ; preds = %74, %61
  br label %87

87:                                               ; preds = %86, %51, %44
  %88 = load ptr, ptr %8, align 8
  %89 = getelementptr inbounds %struct.Expr_, ptr %88, i32 0, i32 2
  %90 = load i16, ptr %89, align 8
  %91 = and i16 %90, 255
  %92 = zext i16 %91 to i32
  %93 = icmp ne i32 %92, 34
  br i1 %93, label %94, label %95

94:                                               ; preds = %87
  store i1 true, ptr %5, align 1
  br label %147

95:                                               ; preds = %87
  %96 = load ptr, ptr %8, align 8
  %97 = getelementptr inbounds %struct.Expr_, ptr %96, i32 0, i32 3
  %98 = getelementptr inbounds %struct.ExprIdentifier, ptr %97, i32 0, i32 0
  %99 = getelementptr inbounds %struct.anon.78, ptr %98, i32 0, i32 0
  %100 = load ptr, ptr %99, align 8
  store ptr %100, ptr %9, align 8
  %101 = load ptr, ptr %9, align 8
  %102 = getelementptr inbounds %struct.Decl_, ptr %101, i32 0, i32 3
  %103 = load i64, ptr %102, align 8
  %104 = and i64 %103, 127
  %105 = trunc i64 %104 to i32
  %106 = icmp ne i32 %105, 26
  br i1 %106, label %107, label %108

107:                                              ; preds = %95
  store i1 true, ptr %5, align 1
  br label %147

108:                                              ; preds = %95
  %109 = load ptr, ptr %9, align 8
  %110 = getelementptr inbounds %struct.Decl_, ptr %109, i32 0, i32 11
  %111 = load i32, ptr %110, align 8
  %112 = lshr i32 %111, 14
  %113 = and i32 %112, 1
  %114 = trunc i32 %113 to i1
  br i1 %114, label %115, label %127

115:                                              ; preds = %108
  %116 = load ptr, ptr %7, align 8
  %117 = getelementptr inbounds %struct.Decl_, ptr %116, i32 0, i32 11
  %118 = load i32, ptr %117, align 8
  %119 = lshr i32 %118, 15
  %120 = and i32 %119, 1
  %121 = trunc i32 %120 to i1
  br i1 %121, label %122, label %127

122:                                              ; preds = %115
  %123 = load ptr, ptr %8, align 8
  %124 = getelementptr inbounds %struct.Expr_, ptr %123, i32 0, i32 1
  %125 = getelementptr inbounds %union.SourceSpan, ptr %124, i32 0, i32 0
  %126 = load i64, ptr %125, align 8
  call void (i64, ptr, ...) @sema_error_at(i64 %126, ptr noundef @.str.93)
  store i1 false, ptr %5, align 1
  br label %147

127:                                              ; preds = %115, %108
  %128 = load ptr, ptr %9, align 8
  %129 = getelementptr inbounds %struct.Decl_, ptr %128, i32 0, i32 11
  %130 = load i32, ptr %129, align 8
  %131 = lshr i32 %130, 15
  %132 = and i32 %131, 1
  %133 = trunc i32 %132 to i1
  br i1 %133, label %134, label %146

134:                                              ; preds = %127
  %135 = load ptr, ptr %7, align 8
  %136 = getelementptr inbounds %struct.Decl_, ptr %135, i32 0, i32 11
  %137 = load i32, ptr %136, align 8
  %138 = lshr i32 %137, 14
  %139 = and i32 %138, 1
  %140 = trunc i32 %139 to i1
  br i1 %140, label %141, label %146

141:                                              ; preds = %134
  %142 = load ptr, ptr %8, align 8
  %143 = getelementptr inbounds %struct.Expr_, ptr %142, i32 0, i32 1
  %144 = getelementptr inbounds %union.SourceSpan, ptr %143, i32 0, i32 0
  %145 = load i64, ptr %144, align 8
  call void (i64, ptr, ...) @sema_error_at(i64 %145, ptr noundef @.str.94)
  store i1 false, ptr %5, align 1
  br label %147

146:                                              ; preds = %134, %127
  store i1 true, ptr %5, align 1
  br label %147

147:                                              ; preds = %146, %141, %122, %107, %94, %81, %39
  %148 = load i1, ptr %5, align 1
  ret i1 %148
}