; Function Attrs: nounwind uwtable
define internal fastcc noundef zeroext i1 @sema_call_check_contract_param_match(i32 %.80.val, ptr nocapture noundef readonly %0) unnamed_addr #0 {
  %2 = and i32 %.80.val, 8192
  %.not = icmp ne i32 %2, 0
  %.phi.trans.insert = getelementptr inbounds i8, ptr %0, i64 16
  %.pre = load i16, ptr %.phi.trans.insert, align 8
  %3 = and i16 %.pre, 255
  %4 = icmp eq i16 %3, 14
  %or.cond5 = select i1 %.not, i1 %4, i1 false
  br i1 %or.cond5, label %5, label %.critedge

5:                                                ; preds = %1
  %6 = getelementptr inbounds i8, ptr %0, i64 24
  %7 = load i16, ptr %6, align 8
  %8 = and i16 %7, 255
  %9 = icmp eq i16 %8, 7
  br i1 %9, label %10, label %.critedge

10:                                               ; preds = %5
  %11 = getelementptr inbounds i8, ptr %0, i64 32
  %12 = load i64, ptr %11, align 8
  %.not21 = icmp eq i64 %12, 0
  br i1 %.not21, label %.thread.sink.split, label %.critedge

.critedge:                                        ; preds = %1, %10, %5
  %trunc = trunc i16 %.pre to i8
  switch i8 %trunc, label %.thread [
    i8 63, label %13
    i8 34, label %28
  ]

13:                                               ; preds = %.critedge
  %14 = getelementptr inbounds i8, ptr %0, i64 24
  %15 = load ptr, ptr %14, align 8
  %16 = getelementptr inbounds i8, ptr %15, i64 16
  %17 = load i16, ptr %16, align 8
  %18 = and i16 %17, 255
  %19 = icmp eq i16 %18, 34
  br i1 %19, label %20, label %.thread

20:                                               ; preds = %13
  %21 = getelementptr inbounds i8, ptr %15, i64 24
  %22 = load ptr, ptr %21, align 8
  %23 = getelementptr inbounds i8, ptr %22, i64 80
  %24 = load i32, ptr %23, align 8
  %25 = and i32 %24, 255
  %26 = icmp ne i32 %25, 0
  %27 = and i32 %.80.val, 16384
  %.not22 = icmp eq i32 %27, 0
  %or.cond = or i1 %.not22, %26
  br i1 %or.cond, label %.thread, label %.thread.sink.split

28:                                               ; preds = %.critedge
  %29 = getelementptr inbounds i8, ptr %0, i64 24
  %30 = load ptr, ptr %29, align 8
  %31 = getelementptr inbounds i8, ptr %30, i64 24
  %32 = load i64, ptr %31, align 8
  %33 = and i64 %32, 127
  %.not24 = icmp eq i64 %33, 26
  br i1 %.not24, label %34, label %.thread

34:                                               ; preds = %28
  %35 = getelementptr inbounds i8, ptr %30, i64 80
  %36 = load i32, ptr %35, align 8
  %37 = and i32 %36, 16384
  %.not25 = icmp eq i32 %37, 0
  %38 = and i32 %.80.val, 32768
  %.not26 = icmp eq i32 %38, 0
  %or.cond2 = or i1 %.not26, %.not25
  br i1 %or.cond2, label %39, label %.thread.sink.split

39:                                               ; preds = %34
  %40 = and i32 %36, 32768
  %.not27 = icmp eq i32 %40, 0
  %41 = and i32 %.80.val, 16384
  %.not28 = icmp eq i32 %41, 0
  %or.cond3 = or i1 %.not28, %.not27
  br i1 %or.cond3, label %.thread, label %.thread.sink.split

.thread.sink.split:                               ; preds = %39, %34, %20, %10
  %.str.94.sink = phi ptr [ @.str.91, %10 ], [ @.str.92, %20 ], [ @.str.93, %34 ], [ @.str.94, %39 ]
  %42 = getelementptr inbounds i8, ptr %0, i64 8
  %43 = load i64, ptr %42, align 8
  tail call void (i64, ptr, ...) @sema_error_at(i64 %43, ptr noundef nonnull %.str.94.sink) #13
  br label %.thread

.thread:                                          ; preds = %.thread.sink.split, %.critedge, %13, %20, %39, %28
  %.0 = phi i1 [ true, %28 ], [ true, %39 ], [ true, %20 ], [ true, %13 ], [ true, %.critedge ], [ false, %.thread.sink.split ]
  ret i1 %.0
}